target datalayout = "e-m:e-p270:32:32-p271:32:32-p272:64:64-i64:64-i128:128-f80:128-n8:16:32:64-S128"
target triple = "x86_64-pc-linux-gnu"

%"class.icu_77::UnicodeString" = type { %"class.icu_77::Replaceable", %"union.icu_77::UnicodeString::StackBufferOrFields" }
%"class.icu_77::Replaceable" = type { %"class.icu_77::UObject" }
%"class.icu_77::UObject" = type { ptr }
%"union.icu_77::UnicodeString::StackBufferOrFields" = type { %struct.anon.0, [32 x i8] }
%struct.anon.0 = type { i16, i32, i32, ptr }
%"class.icu_77::CollationDataBuilder" = type { %"class.icu_77::UObject", ptr, ptr, ptr, ptr, %"class.icu_77::UVector32", %"class.icu_77::UVector64", %"class.icu_77::UVector", %"class.icu_77::UnicodeSet", %"class.icu_77::UnicodeString", i32, [4 x i8], %"class.icu_77::UnicodeSet", i8, i8, i8, ptr, ptr }
%"class.icu_77::UVector32" = type { %"class.icu_77::UObject", i32, i32, i32, ptr }
%"class.icu_77::UVector64" = type { %"class.icu_77::UObject", i32, i32, i32, ptr }
%"class.icu_77::UVector" = type { %"class.icu_77::UObject", i32, i32, ptr, ptr, ptr }
%"class.icu_77::UnicodeSet" = type <{ %"class.icu_77::UnicodeFilter", ptr, i32, i32, i8, [7 x i8], ptr, ptr, i32, [4 x i8], ptr, i32, [4 x i8], ptr, ptr, [25 x i32], [4 x i8] }>
%"class.icu_77::UnicodeFilter" = type { %"class.icu_77::UnicodeFunctor", %"class.icu_77::UnicodeMatcher" }
%"class.icu_77::UnicodeFunctor" = type { %"class.icu_77::UObject" }
%"class.icu_77::UnicodeMatcher" = type { ptr }

; Function Attrs: inlinehint mustprogress uwtable
define linkonce_odr noundef signext i8 @_ZN6icu_779UVector6414ensureCapacityEiR10UErrorCode(ptr noundef nonnull align 8 dereferenceable(32) %0, i32 noundef %1, ptr noundef nonnull align 4 dereferenceable(4) %2) #7 comdat align 2 {
  %4 = alloca i8, align 1
  %5 = alloca ptr, align 8
  %6 = alloca i32, align 4
  %7 = alloca ptr, align 8
  store ptr %0, ptr %5, align 8, !tbaa !107
  store i32 %1, ptr %6, align 4, !tbaa !57
  store ptr %2, ptr %7, align 8, !tbaa !8
  %8 = load ptr, ptr %5, align 8
  %9 = load i32, ptr %6, align 4, !tbaa !57
  %10 = icmp sge i32 %9, 0
  br i1 %10, label %11, label %17

11:                                               ; preds = %3
  %12 = getelementptr inbounds nuw %"class.icu_77::UVector64", ptr %8, i32 0, i32 2
  %13 = load i32, ptr %12, align 4, !tbaa !229
  %14 = load i32, ptr %6, align 4, !tbaa !57
  %15 = icmp sge i32 %13, %14
  br i1 %15, label %16, label %17

16:                                               ; preds = %11
  store i8 1, ptr %4, align 1
  br label %21

17:                                               ; preds = %11, %3
  %18 = load i32, ptr %6, align 4, !tbaa !57
  %19 = load ptr, ptr %7, align 8, !tbaa !8
  %20 = call noundef signext i8 @_ZN6icu_779UVector6414expandCapacityEiR10UErrorCode(ptr noundef nonnull align 8 dereferenceable(32) %8, i32 noundef %18, ptr noundef nonnull align 4 dereferenceable(4) %19)
  store i8 %20, ptr %4, align 1
  br label %21

21:                                               ; preds = %17, %16
  %22 = load i8, ptr %4, align 1
  ret i8 %22
}

; Function Attrs: inlinehint mustprogress uwtable
define linkonce_odr void @_ZN6icu_779UVector6410addElementElR10UErrorCode(ptr noundef nonnull align 8 dereferenceable(32) %0, i64 noundef %1, ptr noundef nonnull align 4 dereferenceable(4) %2) #7 comdat align 2 {
  %4 = alloca ptr, align 8
  %5 = alloca i64, align 8
  %6 = alloca ptr, align 8
  store ptr %0, ptr %4, align 8, !tbaa !107
  store i64 %1, ptr %5, align 8, !tbaa !100
  store ptr %2, ptr %6, align 8, !tbaa !8
  %7 = load ptr, ptr %4, align 8
  %8 = getelementptr inbounds nuw %"class.icu_77::UVector64", ptr %7, i32 0, i32 1
  %9 = load i32, ptr %8, align 8, !tbaa !143
  %10 = add nsw i32 %9, 1
  %11 = load ptr, ptr %6, align 8, !tbaa !8
  %12 = call noundef signext i8 @_ZN6icu_779UVector6414ensureCapacityEiR10UErrorCode(ptr noundef nonnull align 8 dereferenceable(32) %7, i32 noundef %10, ptr noundef nonnull align 4 dereferenceable(4) %11)
  %13 = icmp ne i8 %12, 0
  br i1 %13, label %14, label %25

14:                                               ; preds = %3
  %15 = load i64, ptr %5, align 8, !tbaa !100
  %16 = getelementptr inbounds nuw %"class.icu_77::UVector64", ptr %7, i32 0, i32 4
  %17 = load ptr, ptr %16, align 8, !tbaa !109
  %18 = getelementptr inbounds nuw %"class.icu_77::UVector64", ptr %7, i32 0, i32 1
  %19 = load i32, ptr %18, align 8, !tbaa !143
  %20 = sext i32 %19 to i64
  %21 = getelementptr inbounds i64, ptr %17, i64 %20
  store i64 %15, ptr %21, align 8, !tbaa !100
  %22 = getelementptr inbounds nuw %"class.icu_77::UVector64", ptr %7, i32 0, i32 1
  %23 = load i32, ptr %22, align 8, !tbaa !143
  %24 = add nsw i32 %23, 1
  store i32 %24, ptr %22, align 8, !tbaa !143
  br label %25

25:                                               ; preds = %14, %3
  ret void
}

; Function Attrs: inlinehint mustprogress nounwind uwtable
define linkonce_odr noundef i64 @_ZNK6icu_779UVector6410elementAtiEi(ptr noundef nonnull align 8 dereferenceable(32) %0, i32 noundef %1) #3 comdat align 2 {
  %3 = alloca ptr, align 8
  %4 = alloca i32, align 4
  store ptr %0, ptr %3, align 8, !tbaa !107
  store i32 %1, ptr %4, align 4, !tbaa !57
  %5 = load ptr, ptr %3, align 8
  %6 = load i32, ptr %4, align 4, !tbaa !57
  %7 = icmp sle i32 0, %6
  br i1 %7, label %8, label %20

8:                                                ; preds = %2
  %9 = load i32, ptr %4, align 4, !tbaa !57
  %10 = getelementptr inbounds nuw %"class.icu_77::UVector64", ptr %5, i32 0, i32 1
  %11 = load i32, ptr %10, align 8, !tbaa !143
  %12 = icmp slt i32 %9, %11
  br i1 %12, label %13, label %20

13:                                               ; preds = %8
  %14 = getelementptr inbounds nuw %"class.icu_77::UVector64", ptr %5, i32 0, i32 4
  %15 = load ptr, ptr %14, align 8, !tbaa !109
  %16 = load i32, ptr %4, align 4, !tbaa !57
  %17 = sext i32 %16 to i64
  %18 = getelementptr inbounds i64, ptr %15, i64 %17
  %19 = load i64, ptr %18, align 8, !tbaa !100
  br label %21

20:                                               ; preds = %8, %2
  br label %21

21:                                               ; preds = %20, %13
  %22 = phi i64 [ %19, %13 ], [ 0, %20 ]
  ret i64 %22
}

; Function Attrs: inlinehint mustprogress nounwind uwtable
define linkonce_odr noundef i32 @_ZNK6icu_779UVector644sizeEv(ptr noundef nonnull align 8 dereferenceable(32) %0) #3 comdat align 2 {
  %2 = alloca ptr, align 8
  store ptr %0, ptr %2, align 8, !tbaa !107
  %3 = load ptr, ptr %2, align 8
  %4 = getelementptr inbounds nuw %"class.icu_77::UVector64", ptr %3, i32 0, i32 1
  %5 = load i32, ptr %4, align 8, !tbaa !143
  ret i32 %5
}

; Function Attrs: mustprogress nounwind uwtable
define linkonce_odr noundef i32 @_ZN6icu_779Collation23makeCE32FromTagAndIndexEii(i32 noundef %0, i32 noundef %1) #1 comdat align 2 {
  %3 = alloca i32, align 4
  %4 = alloca i32, align 4
  store i32 %0, ptr %3, align 4, !tbaa !57
  store i32 %1, ptr %4, align 4, !tbaa !57
  %5 = load i32, ptr %4, align 4, !tbaa !57
  %6 = shl i32 %5, 13
  %7 = or i32 %6, 192
  %8 = load i32, ptr %3, align 4, !tbaa !57
  %9 = or i32 %7, %8
  ret i32 %9
}

; Function Attrs: mustprogress uwtable
define noundef i32 @_ZN6icu_7720CollationDataBuilder5addCEElR10UErrorCode(ptr noundef nonnull align 8 dereferenceable(640) %0, i64 noundef %1, ptr noundef nonnull align 4 dereferenceable(4) %2) #4 align 2 {
  %4 = alloca i32, align 4
  %5 = alloca ptr, align 8
  %6 = alloca i64, align 8
  %7 = alloca ptr, align 8
  %8 = alloca i32, align 4
  %9 = alloca i32, align 4
  %10 = alloca i32, align 4
  store ptr %0, ptr %5, align 8, !tbaa !13
  store i64 %1, ptr %6, align 8, !tbaa !100
  store ptr %2, ptr %7, align 8, !tbaa !8
  %11 = load ptr, ptr %5, align 8
  call void @llvm.lifetime.start.p0(i64 4, ptr %8) #11
  %12 = getelementptr inbounds nuw %"class.icu_77::CollationDataBuilder", ptr %11, i32 0, i32 6
  %13 = call noundef i32 @_ZNK6icu_779UVector644sizeEv(ptr noundef nonnull align 8 dereferenceable(32) %12)
  store i32 %13, ptr %8, align 4, !tbaa !57
  call void @llvm.lifetime.start.p0(i64 4, ptr %9) #11
  store i32 0, ptr %9, align 4, !tbaa !57
  br label %14

14:                                               ; preds = %28, %3
  %15 = load i32, ptr %9, align 4, !tbaa !57
  %16 = load i32, ptr %8, align 4, !tbaa !57
  %17 = icmp slt i32 %15, %16
  br i1 %17, label %19, label %18

18:                                               ; preds = %14
  store i32 2, ptr %10, align 4
  br label %31

19:                                               ; preds = %14
  %20 = load i64, ptr %6, align 8, !tbaa !100
  %21 = getelementptr inbounds nuw %"class.icu_77::CollationDataBuilder", ptr %11, i32 0, i32 6
  %22 = load i32, ptr %9, align 4, !tbaa !57
  %23 = call noundef i64 @_ZNK6icu_779UVector6410elementAtiEi(ptr noundef nonnull align 8 dereferenceable(32) %21, i32 noundef %22)
  %24 = icmp eq i64 %20, %23
  br i1 %24, label %25, label %27

25:                                               ; preds = %19
  %26 = load i32, ptr %9, align 4, !tbaa !57
  store i32 %26, ptr %4, align 4
  store i32 1, ptr %10, align 4
  br label %31

27:                                               ; preds = %19
  br label %28

28:                                               ; preds = %27
  %29 = load i32, ptr %9, align 4, !tbaa !57
  %30 = add nsw i32 %29, 1
  store i32 %30, ptr %9, align 4, !tbaa !57
  br label %14, !llvm.loop !141

31:                                               ; preds = %25, %18
  call void @llvm.lifetime.end.p0(i64 4, ptr %9) #11
  %32 = load i32, ptr %10, align 4
  switch i32 %32, label %38 [
    i32 2, label %33
  ]

33:                                               ; preds = %31
  %34 = getelementptr inbounds nuw %"class.icu_77::CollationDataBuilder", ptr %11, i32 0, i32 6
  %35 = load i64, ptr %6, align 8, !tbaa !100
  %36 = load ptr, ptr %7, align 8, !tbaa !8
  call void @_ZN6icu_779UVector6410addElementElR10UErrorCode(ptr noundef nonnull align 8 dereferenceable(32) %34, i64 noundef %35, ptr noundef nonnull align 4 dereferenceable(4) %36)
  %37 = load i32, ptr %8, align 4, !tbaa !57
  store i32 %37, ptr %4, align 4
  store i32 1, ptr %10, align 4
  br label %38

38:                                               ; preds = %33, %31
  call void @llvm.lifetime.end.p0(i64 4, ptr %8) #11
  %39 = load i32, ptr %4, align 4
  ret i32 %39
}

; Function Attrs: inlinehint mustprogress uwtable
define linkonce_odr noundef signext i8 @_ZNK6icu_7720CollationDataBuilder21isCompressiblePrimaryEj(ptr noundef nonnull align 8 dereferenceable(640) %0, i32 noundef %1) #7 comdat align 2 {
  %3 = alloca ptr, align 8
  %4 = alloca i32, align 4
  store ptr %0, ptr %3, align 8, !tbaa !13
  store i32 %1, ptr %4, align 4, !tbaa !57
  %5 = load ptr, ptr %3, align 8
  %6 = load i32, ptr %4, align 4, !tbaa !57
  %7 = lshr i32 %6, 24
  %8 = load ptr, ptr %5, align 8, !tbaa !15
  %9 = getelementptr inbounds ptr, ptr %8, i64 3
  %10 = load ptr, ptr %9, align 8
  %11 = call noundef signext i8 %10(ptr noundef nonnull align 8 dereferenceable(640) %5, i32 noundef %7)
  ret i8 %11
}

; Function Attrs: inlinehint mustprogress nounwind uwtable
define internal noundef signext i8 @_ZL9U_FAILURE10UErrorCode(i32 noundef %0) #3 {
  %2 = alloca i32, align 4
  store i32 %0, ptr %2, align 4, !tbaa !97
  %3 = load i32, ptr %2, align 4, !tbaa !97
  %4 = icmp sgt i32 %3, 0
  %5 = zext i1 %4 to i8
  ret i8 %5
}

; Function Attrs: mustprogress uwtable
define noundef signext i8 @_ZN6icu_7720CollationDataBuilder20maybeSetPrimaryRangeEiijiR10UErrorCode(ptr noundef nonnull align 8 dereferenceable(640) %0, i32 noundef %1, i32 noundef %2, i32 noundef %3, i32 noundef %4, ptr noundef nonnull align 4 dereferenceable(4) %5) #4 align 2 {
  %7 = alloca i8, align 1
  %8 = alloca ptr, align 8
  %9 = alloca i32, align 4
  %10 = alloca i32, align 4
  %11 = alloca i32, align 4
  %12 = alloca i32, align 4
  %13 = alloca ptr, align 8
  %14 = alloca i32, align 4
  %15 = alloca i64, align 8
  %16 = alloca i32, align 4
  %17 = alloca i32, align 4
  %18 = alloca i32, align 4
  store ptr %0, ptr %8, align 8, !tbaa !13
  store i32 %1, ptr %9, align 4, !tbaa !57
  store i32 %2, ptr %10, align 4, !tbaa !57
  store i32 %3, ptr %11, align 4, !tbaa !57
  store i32 %4, ptr %12, align 4, !tbaa !57
  store ptr %5, ptr %13, align 8, !tbaa !8
  %19 = load ptr, ptr %8, align 8
  %20 = load ptr, ptr %13, align 8, !tbaa !8
  %21 = load i32, ptr %20, align 4, !tbaa !97
  %22 = call noundef signext i8 @_ZL9U_FAILURE10UErrorCode(i32 noundef %21)
  %23 = icmp ne i8 %22, 0
  br i1 %23, label %24, label %25

24:                                               ; preds = %6
  store i8 0, ptr %7, align 1
  br label %94

25:                                               ; preds = %6
  call void @llvm.lifetime.start.p0(i64 4, ptr %14) #11
  %26 = load i32, ptr %10, align 4, !tbaa !57
  %27 = ashr i32 %26, 5
  %28 = load i32, ptr %9, align 4, !tbaa !57
  %29 = ashr i32 %28, 5
  %30 = sub nsw i32 %27, %29
  store i32 %30, ptr %14, align 4, !tbaa !57
  %31 = load i32, ptr %12, align 4, !tbaa !57
  %32 = icmp sle i32 2, %31
  br i1 %32, label %33, label %92

33:                                               ; preds = %25
  %34 = load i32, ptr %12, align 4, !tbaa !57
  %35 = icmp sle i32 %34, 127
  br i1 %35, label %36, label %92

36:                                               ; preds = %33
  %37 = load i32, ptr %14, align 4, !tbaa !57
  %38 = icmp sge i32 %37, 3
  br i1 %38, label %50, label %39

39:                                               ; preds = %36
  %40 = load i32, ptr %14, align 4, !tbaa !57
  %41 = icmp sgt i32 %40, 0
  br i1 %41, label %42, label %92

42:                                               ; preds = %39
  %43 = load i32, ptr %9, align 4, !tbaa !57
  %44 = and i32 %43, 31
  %45 = icmp sle i32 %44, 28
  br i1 %45, label %46, label %92

46:                                               ; preds = %42
  %47 = load i32, ptr %10, align 4, !tbaa !57
  %48 = and i32 %47, 31
  %49 = icmp sge i32 %48, 3
  br i1 %49, label %50, label %92

50:                                               ; preds = %46, %36
  call void @llvm.lifetime.start.p0(i64 8, ptr %15) #11
  %51 = load i32, ptr %11, align 4, !tbaa !57
  %52 = zext i32 %51 to i64
  %53 = shl i64 %52, 32
  %54 = load i32, ptr %9, align 4, !tbaa !57
  %55 = shl i32 %54, 8
  %56 = sext i32 %55 to i64
  %57 = or i64 %53, %56
  %58 = load i32, ptr %12, align 4, !tbaa !57
  %59 = sext i32 %58 to i64
  %60 = or i64 %57, %59
  store i64 %60, ptr %15, align 8, !tbaa !100
  %61 = load i32, ptr %11, align 4, !tbaa !57
  %62 = call noundef signext i8 @_ZNK6icu_7720CollationDataBuilder21isCompressiblePrimaryEj(ptr noundef nonnull align 8 dereferenceable(640) %19, i32 noundef %61)
  %63 = icmp ne i8 %62, 0
  br i1 %63, label %64, label %67

64:                                               ; preds = %50
  %65 = load i64, ptr %15, align 8, !tbaa !100
  %66 = or i64 %65, 128
  store i64 %66, ptr %15, align 8, !tbaa !100
  br label %67

67:                                               ; preds = %64, %50
  call void @llvm.lifetime.start.p0(i64 4, ptr %16) #11
  %68 = load i64, ptr %15, align 8, !tbaa !100
  %69 = load ptr, ptr %13, align 8, !tbaa !8
  %70 = call noundef i32 @_ZN6icu_7720CollationDataBuilder5addCEElR10UErrorCode(ptr noundef nonnull align 8 dereferenceable(640) %19, i64 noundef %68, ptr noundef nonnull align 4 dereferenceable(4) %69)
  store i32 %70, ptr %16, align 4, !tbaa !57
  %71 = load ptr, ptr %13, align 8, !tbaa !8
  %72 = load i32, ptr %71, align 4, !tbaa !97
  %73 = call noundef signext i8 @_ZL9U_FAILURE10UErrorCode(i32 noundef %72)
  %74 = icmp ne i8 %73, 0
  br i1 %74, label %75, label %76

75:                                               ; preds = %67
  store i8 0, ptr %7, align 1
  store i32 1, ptr %17, align 4
  br label %91

76:                                               ; preds = %67
  %77 = load i32, ptr %16, align 4, !tbaa !57
  %78 = icmp sgt i32 %77, 524287
  br i1 %78, label %79, label %81

79:                                               ; preds = %76
  %80 = load ptr, ptr %13, align 8, !tbaa !8
  store i32 15, ptr %80, align 4, !tbaa !97
  store i8 0, ptr %7, align 1
  store i32 1, ptr %17, align 4
  br label %91

81:                                               ; preds = %76
  call void @llvm.lifetime.start.p0(i64 4, ptr %18) #11
  %82 = load i32, ptr %16, align 4, !tbaa !57
  %83 = call noundef i32 @_ZN6icu_779Collation23makeCE32FromTagAndIndexEii(i32 noundef 14, i32 noundef %82)
  store i32 %83, ptr %18, align 4, !tbaa !57
  %84 = getelementptr inbounds nuw %"class.icu_77::CollationDataBuilder", ptr %19, i32 0, i32 4
  %85 = load ptr, ptr %84, align 8, !tbaa !99
  %86 = load i32, ptr %9, align 4, !tbaa !57
  %87 = load i32, ptr %10, align 4, !tbaa !57
  %88 = load i32, ptr %18, align 4, !tbaa !57
  %89 = load ptr, ptr %13, align 8, !tbaa !8
  call void @utrie2_setRange32_77(ptr noundef %85, i32 noundef %86, i32 noundef %87, i32 noundef %88, i8 noundef signext 1, ptr noundef %89)
  %90 = getelementptr inbounds nuw %"class.icu_77::CollationDataBuilder", ptr %19, i32 0, i32 13
  store i8 1, ptr %90, align 8, !tbaa !133
  store i8 1, ptr %7, align 1
  store i32 1, ptr %17, align 4
  call void @llvm.lifetime.end.p0(i64 4, ptr %18) #11
  br label %91

91:                                               ; preds = %81, %79, %75
  call void @llvm.lifetime.end.p0(i64 4, ptr %16) #11
  call void @llvm.lifetime.end.p0(i64 8, ptr %15) #11
  br label %93

92:                                               ; preds = %46, %42, %39, %33, %25
  store i8 0, ptr %7, align 1
  store i32 1, ptr %17, align 4
  br label %93

93:                                               ; preds = %92, %91
  call void @llvm.lifetime.end.p0(i64 4, ptr %14) #11
  br label %94

94:                                               ; preds = %93, %24
  %95 = load i8, ptr %7, align 1
  ret i8 %95
}