; Function Attrs: mustprogress uwtable
define noundef signext range(i8 0, 2) i8 @_ZN6icu_7720CollationDataBuilder20maybeSetPrimaryRangeEiijiR10UErrorCode(ptr noundef nonnull align 8 dereferenceable(640) %0, i32 noundef %1, i32 noundef %2, i32 noundef %3, i32 noundef %4, ptr noundef nonnull align 4 dereferenceable(4) %5) local_unnamed_addr #6 align 2 {
  %7 = load i32, ptr %5, align 4, !tbaa !76
  %8 = icmp slt i32 %7, 1
  br i1 %8, label %9, label %68

9:                                                ; preds = %6
  %10 = ashr i32 %2, 5
  %11 = ashr i32 %1, 5
  %12 = sub nsw i32 %10, %11
  %13 = add i32 %4, -2
  %or.cond = icmp ult i32 %13, 126
  br i1 %or.cond, label %14, label %68

14:                                               ; preds = %9
  %15 = icmp sgt i32 %12, 2
  br i1 %15, label %22, label %16

16:                                               ; preds = %14
  %17 = icmp sgt i32 %12, 0
  %18 = and i32 %1, 31
  %19 = icmp samesign ult i32 %18, 29
  %or.cond33 = select i1 %17, i1 %19, i1 false
  %20 = and i32 %2, 31
  %21 = icmp samesign ugt i32 %20, 2
  %or.cond35 = select i1 %or.cond33, i1 %21, i1 false
  br i1 %or.cond35, label %22, label %68

22:                                               ; preds = %16, %14
  %23 = zext i32 %3 to i64
  %24 = shl nuw i64 %23, 32
  %25 = shl i32 %1, 8
  %26 = sext i32 %25 to i64
  %27 = or i64 %24, %26
  %28 = zext nneg i32 %4 to i64
  %29 = or disjoint i64 %27, %28
  %30 = lshr i32 %3, 24
  %31 = load ptr, ptr %0, align 8, !tbaa !33
  %32 = getelementptr inbounds nuw i8, ptr %31, i64 24
  %33 = load ptr, ptr %32, align 8
  %34 = tail call noundef signext i8 %33(ptr noundef nonnull align 8 dereferenceable(640) %0, i32 noundef %30)
  %.not30 = icmp eq i8 %34, 0
  %35 = or disjoint i64 %29, 128
  %spec.select = select i1 %.not30, i64 %29, i64 %35
  %36 = getelementptr inbounds nuw i8, ptr %0, i64 72
  %37 = getelementptr inbounds nuw i8, ptr %0, i64 80
  %38 = load i32, ptr %37, align 8, !tbaa !125
  %.not14.i = icmp sgt i32 %38, 0
  br i1 %.not14.i, label %_ZNK6icu_779UVector6410elementAtiEi.exit.lr.ph.i, label %.critedge.i

_ZNK6icu_779UVector6410elementAtiEi.exit.lr.ph.i: ; preds = %22
  %39 = getelementptr inbounds nuw i8, ptr %0, i64 96
  %40 = load ptr, ptr %39, align 8, !tbaa !72
  %wide.trip.count.i = zext nneg i32 %38 to i64
  br label %_ZNK6icu_779UVector6410elementAtiEi.exit.i

_ZNK6icu_779UVector6410elementAtiEi.exit.i:       ; preds = %44, %_ZNK6icu_779UVector6410elementAtiEi.exit.lr.ph.i
  %indvars.iv.i = phi i64 [ 0, %_ZNK6icu_779UVector6410elementAtiEi.exit.lr.ph.i ], [ %indvars.iv.next.i, %44 ]
  %41 = getelementptr inbounds nuw i64, ptr %40, i64 %indvars.iv.i
  %42 = load i64, ptr %41, align 8, !tbaa !89
  %43 = icmp eq i64 %spec.select, %42
  br i1 %43, label %_ZN6icu_779UVector6410addElementElR10UErrorCode.exit.loopexit.i, label %44

44:                                               ; preds = %_ZNK6icu_779UVector6410elementAtiEi.exit.i
  %indvars.iv.next.i = add nuw nsw i64 %indvars.iv.i, 1
  %exitcond.not.i = icmp eq i64 %indvars.iv.next.i, %wide.trip.count.i
  br i1 %exitcond.not.i, label %.critedge.i, label %_ZNK6icu_779UVector6410elementAtiEi.exit.i, !llvm.loop !126

.critedge.i:                                      ; preds = %44, %22
  %45 = icmp slt i32 %38, -1
  %46 = getelementptr inbounds nuw i8, ptr %0, i64 84
  %47 = load i32, ptr %46, align 4
  %.not.i.i.i = icmp sle i32 %47, %38
  %or.cond.i.i.i = select i1 %45, i1 true, i1 %.not.i.i.i
  br i1 %or.cond.i.i.i, label %_ZN6icu_779UVector6414ensureCapacityEiR10UErrorCode.exit.i.i, label %_ZN6icu_779UVector6414ensureCapacityEiR10UErrorCode.exit.thread.i.i

_ZN6icu_779UVector6414ensureCapacityEiR10UErrorCode.exit.i.i: ; preds = %.critedge.i
  %48 = add nsw i32 %38, 1
  %49 = tail call noundef signext i8 @_ZN6icu_779UVector6414expandCapacityEiR10UErrorCode(ptr noundef nonnull align 8 dereferenceable(32) %36, i32 noundef %48, ptr noundef nonnull align 4 dereferenceable(4) %5)
  %.not.i.i = icmp eq i8 %49, 0
  br i1 %.not.i.i, label %_ZN6icu_7720CollationDataBuilder5addCEElR10UErrorCode.exit, label %_ZN6icu_779UVector6414ensureCapacityEiR10UErrorCode.exit._ZN6icu_779UVector6414ensureCapacityEiR10UErrorCode.exit.thread_crit_edge.i.i

_ZN6icu_779UVector6414ensureCapacityEiR10UErrorCode.exit._ZN6icu_779UVector6414ensureCapacityEiR10UErrorCode.exit.thread_crit_edge.i.i: ; preds = %_ZN6icu_779UVector6414ensureCapacityEiR10UErrorCode.exit.i.i
  %.pre.i.i = load i32, ptr %37, align 8, !tbaa !125
  br label %_ZN6icu_779UVector6414ensureCapacityEiR10UErrorCode.exit.thread.i.i

_ZN6icu_779UVector6414ensureCapacityEiR10UErrorCode.exit.thread.i.i: ; preds = %_ZN6icu_779UVector6414ensureCapacityEiR10UErrorCode.exit._ZN6icu_779UVector6414ensureCapacityEiR10UErrorCode.exit.thread_crit_edge.i.i, %.critedge.i
  %50 = phi i32 [ %.pre.i.i, %_ZN6icu_779UVector6414ensureCapacityEiR10UErrorCode.exit._ZN6icu_779UVector6414ensureCapacityEiR10UErrorCode.exit.thread_crit_edge.i.i ], [ %38, %.critedge.i ]
  %51 = getelementptr inbounds nuw i8, ptr %0, i64 96
  %52 = load ptr, ptr %51, align 8, !tbaa !72
  %53 = sext i32 %50 to i64
  %54 = getelementptr inbounds i64, ptr %52, i64 %53
  store i64 %spec.select, ptr %54, align 8, !tbaa !89
  %55 = add nsw i32 %50, 1
  store i32 %55, ptr %37, align 8, !tbaa !125
  br label %_ZN6icu_7720CollationDataBuilder5addCEElR10UErrorCode.exit

_ZN6icu_779UVector6410addElementElR10UErrorCode.exit.loopexit.i: ; preds = %_ZNK6icu_779UVector6410elementAtiEi.exit.i
  %56 = trunc nuw nsw i64 %indvars.iv.i to i32
  br label %_ZN6icu_7720CollationDataBuilder5addCEElR10UErrorCode.exit

_ZN6icu_7720CollationDataBuilder5addCEElR10UErrorCode.exit: ; preds = %_ZN6icu_779UVector6414ensureCapacityEiR10UErrorCode.exit.i.i, %_ZN6icu_779UVector6414ensureCapacityEiR10UErrorCode.exit.thread.i.i, %_ZN6icu_779UVector6410addElementElR10UErrorCode.exit.loopexit.i
  %.1.i = phi i32 [ %38, %_ZN6icu_779UVector6414ensureCapacityEiR10UErrorCode.exit.i.i ], [ %38, %_ZN6icu_779UVector6414ensureCapacityEiR10UErrorCode.exit.thread.i.i ], [ %56, %_ZN6icu_779UVector6410addElementElR10UErrorCode.exit.loopexit.i ]
  %57 = load i32, ptr %5, align 4, !tbaa !76
  %58 = icmp slt i32 %57, 1
  br i1 %58, label %59, label %68

59:                                               ; preds = %_ZN6icu_7720CollationDataBuilder5addCEElR10UErrorCode.exit
  %60 = icmp sgt i32 %.1.i, 524287
  br i1 %60, label %61, label %62

61:                                               ; preds = %59
  store i32 15, ptr %5, align 4, !tbaa !76
  br label %68

62:                                               ; preds = %59
  %63 = shl i32 %.1.i, 13
  %64 = or disjoint i32 %63, 206
  %65 = getelementptr inbounds nuw i8, ptr %0, i64 32
  %66 = load ptr, ptr %65, align 8, !tbaa !80
  tail call void @utrie2_setRange32_77(ptr noundef %66, i32 noundef %1, i32 noundef %2, i32 noundef %64, i8 noundef signext 1, ptr noundef nonnull %5)
  %67 = getelementptr inbounds nuw i8, ptr %0, i64 616
  store i8 1, ptr %67, align 8, !tbaa !118
  br label %68

68:                                               ; preds = %_ZN6icu_7720CollationDataBuilder5addCEElR10UErrorCode.exit, %62, %61, %16, %9, %6
  %.0 = phi i8 [ 0, %6 ], [ 0, %61 ], [ 1, %62 ], [ 0, %_ZN6icu_7720CollationDataBuilder5addCEElR10UErrorCode.exit ], [ 0, %16 ], [ 0, %9 ]
  ret i8 %.0
}